target datalayout = "e-m:e-p270:32:32-p271:32:32-p272:64:64-i64:64-i128:128-f80:128-n8:16:32:64-S128"
target triple = "x86_64-pc-linux-gnu"

@.str.80 = private unnamed_addr constant [8 x i8] c"INT_MAX\00", align 1
@.str.81 = private unnamed_addr constant [8 x i8] c"INT_MIN\00", align 1
@.str.82 = private unnamed_addr constant [11 x i8] c"UINT32_MAX\00", align 1
@.str.83 = private unnamed_addr constant [8 x i8] c"I64_MAX\00", align 1
@.str.84 = private unnamed_addr constant [8 x i8] c"I64_MIN\00", align 1
@.str.85 = private unnamed_addr constant [8 x i8] c"FLT_MAX\00", align 1
@.str.86 = private unnamed_addr constant [8 x i8] c"FLT_MIN\00", align 1
@.str.87 = private unnamed_addr constant [9 x i8] c"-FLT_MAX\00", align 1
@.str.88 = private unnamed_addr constant [9 x i8] c"-FLT_MIN\00", align 1
@.str.89 = private unnamed_addr constant [8 x i8] c"DBL_MAX\00", align 1
@.str.90 = private unnamed_addr constant [8 x i8] c"DBL_MIN\00", align 1
@.str.91 = private unnamed_addr constant [9 x i8] c"-DBL_MAX\00", align 1
@.str.92 = private unnamed_addr constant [9 x i8] c"-DBL_MIN\00", align 1
@.str.93 = private unnamed_addr constant [3 x i8] c"%g\00", align 1

; Function Attrs: nounwind uwtable
define internal void @log_value(ptr noundef %0, i32 noundef %1, double noundef %2) #0 {
  %4 = alloca ptr, align 8
  %5 = alloca i32, align 4
  %6 = alloca double, align 8
  store ptr %0, ptr %4, align 8, !tbaa !4
  store i32 %1, ptr %5, align 4, !tbaa !20
  store double %2, ptr %6, align 8, !tbaa !53
  %7 = load double, ptr %6, align 8, !tbaa !53
  %8 = fcmp nsz oeq double %7, 0x41DFFFFFFFC00000
  br i1 %8, label %9, label %12

9:                                                ; preds = %3
  %10 = load ptr, ptr %4, align 8, !tbaa !4
  %11 = load i32, ptr %5, align 4, !tbaa !20
  call void (ptr, i32, ptr, ...) @av_log(ptr noundef %10, i32 noundef %11, ptr noundef @.str.80)
  br label %100

12:                                               ; preds = %3
  %13 = load double, ptr %6, align 8, !tbaa !53
  %14 = fcmp nsz oeq double %13, 0xC1E0000000000000
  br i1 %14, label %15, label %18

15:                                               ; preds = %12
  %16 = load ptr, ptr %4, align 8, !tbaa !4
  %17 = load i32, ptr %5, align 4, !tbaa !20
  call void (ptr, i32, ptr, ...) @av_log(ptr noundef %16, i32 noundef %17, ptr noundef @.str.81)
  br label %99

18:                                               ; preds = %12
  %19 = load double, ptr %6, align 8, !tbaa !53
  %20 = fcmp nsz oeq double %19, 0x41EFFFFFFFE00000
  br i1 %20, label %21, label %24

21:                                               ; preds = %18
  %22 = load ptr, ptr %4, align 8, !tbaa !4
  %23 = load i32, ptr %5, align 4, !tbaa !20
  call void (ptr, i32, ptr, ...) @av_log(ptr noundef %22, i32 noundef %23, ptr noundef @.str.82)
  br label %98

24:                                               ; preds = %18
  %25 = load double, ptr %6, align 8, !tbaa !53
  %26 = fcmp nsz oeq double %25, 0x43E0000000000000
  br i1 %26, label %27, label %30

27:                                               ; preds = %24
  %28 = load ptr, ptr %4, align 8, !tbaa !4
  %29 = load i32, ptr %5, align 4, !tbaa !20
  call void (ptr, i32, ptr, ...) @av_log(ptr noundef %28, i32 noundef %29, ptr noundef @.str.83)
  br label %97

30:                                               ; preds = %24
  %31 = load double, ptr %6, align 8, !tbaa !53
  %32 = fcmp nsz oeq double %31, 0xC3E0000000000000
  br i1 %32, label %33, label %36

33:                                               ; preds = %30
  %34 = load ptr, ptr %4, align 8, !tbaa !4
  %35 = load i32, ptr %5, align 4, !tbaa !20
  call void (ptr, i32, ptr, ...) @av_log(ptr noundef %34, i32 noundef %35, ptr noundef @.str.84)
  br label %96

36:                                               ; preds = %30
  %37 = load double, ptr %6, align 8, !tbaa !53
  %38 = fcmp nsz oeq double %37, 0x47EFFFFFE0000000
  br i1 %38, label %39, label %42

39:                                               ; preds = %36
  %40 = load ptr, ptr %4, align 8, !tbaa !4
  %41 = load i32, ptr %5, align 4, !tbaa !20
  call void (ptr, i32, ptr, ...) @av_log(ptr noundef %40, i32 noundef %41, ptr noundef @.str.85)
  br label %95

42:                                               ; preds = %36
  %43 = load double, ptr %6, align 8, !tbaa !53
  %44 = fcmp nsz oeq double %43, 0x3810000000000000
  br i1 %44, label %45, label %48

45:                                               ; preds = %42
  %46 = load ptr, ptr %4, align 8, !tbaa !4
  %47 = load i32, ptr %5, align 4, !tbaa !20
  call void (ptr, i32, ptr, ...) @av_log(ptr noundef %46, i32 noundef %47, ptr noundef @.str.86)
  br label %94

48:                                               ; preds = %42
  %49 = load double, ptr %6, align 8, !tbaa !53
  %50 = fcmp nsz oeq double %49, 0xC7EFFFFFE0000000
  br i1 %50, label %51, label %54

51:                                               ; preds = %48
  %52 = load ptr, ptr %4, align 8, !tbaa !4
  %53 = load i32, ptr %5, align 4, !tbaa !20
  call void (ptr, i32, ptr, ...) @av_log(ptr noundef %52, i32 noundef %53, ptr noundef @.str.87)
  br label %93

54:                                               ; preds = %48
  %55 = load double, ptr %6, align 8, !tbaa !53
  %56 = fcmp nsz oeq double %55, 0xB810000000000000
  br i1 %56, label %57, label %60

57:                                               ; preds = %54
  %58 = load ptr, ptr %4, align 8, !tbaa !4
  %59 = load i32, ptr %5, align 4, !tbaa !20
  call void (ptr, i32, ptr, ...) @av_log(ptr noundef %58, i32 noundef %59, ptr noundef @.str.88)
  br label %92

60:                                               ; preds = %54
  %61 = load double, ptr %6, align 8, !tbaa !53
  %62 = fcmp nsz oeq double %61, 0x7FEFFFFFFFFFFFFF
  br i1 %62, label %63, label %66

63:                                               ; preds = %60
  %64 = load ptr, ptr %4, align 8, !tbaa !4
  %65 = load i32, ptr %5, align 4, !tbaa !20
  call void (ptr, i32, ptr, ...) @av_log(ptr noundef %64, i32 noundef %65, ptr noundef @.str.89)
  br label %91

66:                                               ; preds = %60
  %67 = load double, ptr %6, align 8, !tbaa !53
  %68 = fcmp nsz oeq double %67, 0x10000000000000
  br i1 %68, label %69, label %72

69:                                               ; preds = %66
  %70 = load ptr, ptr %4, align 8, !tbaa !4
  %71 = load i32, ptr %5, align 4, !tbaa !20
  call void (ptr, i32, ptr, ...) @av_log(ptr noundef %70, i32 noundef %71, ptr noundef @.str.90)
  br label %90

72:                                               ; preds = %66
  %73 = load double, ptr %6, align 8, !tbaa !53
  %74 = fcmp nsz oeq double %73, 0xFFEFFFFFFFFFFFFF
  br i1 %74, label %75, label %78

75:                                               ; preds = %72
  %76 = load ptr, ptr %4, align 8, !tbaa !4
  %77 = load i32, ptr %5, align 4, !tbaa !20
  call void (ptr, i32, ptr, ...) @av_log(ptr noundef %76, i32 noundef %77, ptr noundef @.str.91)
  br label %89

78:                                               ; preds = %72
  %79 = load double, ptr %6, align 8, !tbaa !53
  %80 = fcmp nsz oeq double %79, 0x8010000000000000
  br i1 %80, label %81, label %84

81:                                               ; preds = %78
  %82 = load ptr, ptr %4, align 8, !tbaa !4
  %83 = load i32, ptr %5, align 4, !tbaa !20
  call void (ptr, i32, ptr, ...) @av_log(ptr noundef %82, i32 noundef %83, ptr noundef @.str.92)
  br label %88

84:                                               ; preds = %78
  %85 = load ptr, ptr %4, align 8, !tbaa !4
  %86 = load i32, ptr %5, align 4, !tbaa !20
  %87 = load double, ptr %6, align 8, !tbaa !53
  call void (ptr, i32, ptr, ...) @av_log(ptr noundef %85, i32 noundef %86, ptr noundef @.str.93, double noundef %87)
  br label %88

88:                                               ; preds = %84, %81
  br label %89

89:                                               ; preds = %88, %75
  br label %90

90:                                               ; preds = %89, %69
  br label %91

91:                                               ; preds = %90, %63
  br label %92

92:                                               ; preds = %91, %57
  br label %93

93:                                               ; preds = %92, %51
  br label %94

94:                                               ; preds = %93, %45
  br label %95

95:                                               ; preds = %94, %39
  br label %96

96:                                               ; preds = %95, %33
  br label %97

97:                                               ; preds = %96, %27
  br label %98

98:                                               ; preds = %97, %21
  br label %99

99:                                               ; preds = %98, %15
  br label %100

100:                                              ; preds = %99, %9
  ret void
}