; Function Attrs: nounwind uwtable
define internal fastcc void @log_value(ptr noundef %0, double noundef %1) unnamed_addr #2 {
  %3 = fcmp nsz oeq double %1, 0x41DFFFFFFFC00000
  br i1 %3, label %4, label %5

4:                                                ; preds = %2
  tail call void (ptr, i32, ptr, ...) @av_log(ptr noundef %0, i32 noundef 32, ptr noundef nonnull @.str.80) #18
  br label %42

5:                                                ; preds = %2
  %6 = fcmp nsz oeq double %1, 0xC1E0000000000000
  br i1 %6, label %7, label %8

7:                                                ; preds = %5
  tail call void (ptr, i32, ptr, ...) @av_log(ptr noundef %0, i32 noundef 32, ptr noundef nonnull @.str.81) #18
  br label %42

8:                                                ; preds = %5
  %9 = fcmp nsz oeq double %1, 0x41EFFFFFFFE00000
  br i1 %9, label %10, label %11

10:                                               ; preds = %8
  tail call void (ptr, i32, ptr, ...) @av_log(ptr noundef %0, i32 noundef 32, ptr noundef nonnull @.str.82) #18
  br label %42

11:                                               ; preds = %8
  %12 = fcmp nsz oeq double %1, 0x43E0000000000000
  br i1 %12, label %13, label %14

13:                                               ; preds = %11
  tail call void (ptr, i32, ptr, ...) @av_log(ptr noundef %0, i32 noundef 32, ptr noundef nonnull @.str.83) #18
  br label %42

14:                                               ; preds = %11
  %15 = fcmp nsz oeq double %1, 0xC3E0000000000000
  br i1 %15, label %16, label %17

16:                                               ; preds = %14
  tail call void (ptr, i32, ptr, ...) @av_log(ptr noundef %0, i32 noundef 32, ptr noundef nonnull @.str.84) #18
  br label %42

17:                                               ; preds = %14
  %18 = fcmp nsz oeq double %1, 0x47EFFFFFE0000000
  br i1 %18, label %19, label %20

19:                                               ; preds = %17
  tail call void (ptr, i32, ptr, ...) @av_log(ptr noundef %0, i32 noundef 32, ptr noundef nonnull @.str.85) #18
  br label %42

20:                                               ; preds = %17
  %21 = fcmp nsz oeq double %1, 0x3810000000000000
  br i1 %21, label %22, label %23

22:                                               ; preds = %20
  tail call void (ptr, i32, ptr, ...) @av_log(ptr noundef %0, i32 noundef 32, ptr noundef nonnull @.str.86) #18
  br label %42

23:                                               ; preds = %20
  %24 = fcmp nsz oeq double %1, 0xC7EFFFFFE0000000
  br i1 %24, label %25, label %26

25:                                               ; preds = %23
  tail call void (ptr, i32, ptr, ...) @av_log(ptr noundef %0, i32 noundef 32, ptr noundef nonnull @.str.87) #18
  br label %42

26:                                               ; preds = %23
  %27 = fcmp nsz oeq double %1, 0xB810000000000000
  br i1 %27, label %28, label %29

28:                                               ; preds = %26
  tail call void (ptr, i32, ptr, ...) @av_log(ptr noundef %0, i32 noundef 32, ptr noundef nonnull @.str.88) #18
  br label %42

29:                                               ; preds = %26
  %30 = fcmp nsz oeq double %1, 0x7FEFFFFFFFFFFFFF
  br i1 %30, label %31, label %32

31:                                               ; preds = %29
  tail call void (ptr, i32, ptr, ...) @av_log(ptr noundef %0, i32 noundef 32, ptr noundef nonnull @.str.89) #18
  br label %42

32:                                               ; preds = %29
  %33 = fcmp nsz oeq double %1, 0x10000000000000
  br i1 %33, label %34, label %35

34:                                               ; preds = %32
  tail call void (ptr, i32, ptr, ...) @av_log(ptr noundef %0, i32 noundef 32, ptr noundef nonnull @.str.90) #18
  br label %42

35:                                               ; preds = %32
  %36 = fcmp nsz oeq double %1, 0xFFEFFFFFFFFFFFFF
  br i1 %36, label %37, label %38

37:                                               ; preds = %35
  tail call void (ptr, i32, ptr, ...) @av_log(ptr noundef %0, i32 noundef 32, ptr noundef nonnull @.str.91) #18
  br label %42

38:                                               ; preds = %35
  %39 = fcmp nsz oeq double %1, 0x8010000000000000
  br i1 %39, label %40, label %41

40:                                               ; preds = %38
  tail call void (ptr, i32, ptr, ...) @av_log(ptr noundef %0, i32 noundef 32, ptr noundef nonnull @.str.92) #18
  br label %42

41:                                               ; preds = %38
  tail call void (ptr, i32, ptr, ...) @av_log(ptr noundef %0, i32 noundef 32, ptr noundef nonnull @.str.93, double noundef %1) #18
  br label %42

42:                                               ; preds = %7, %13, %19, %25, %31, %37, %41, %40, %34, %28, %22, %16, %10, %4
  ret void
}